target datalayout = "e-m:e-p270:32:32-p271:32:32-p272:64:64-i64:64-i128:128-f80:128-n8:16:32:64-S128"
target triple = "x86_64-pc-linux-gnu"

%struct.JsonSemAction = type { ptr, ptr, ptr, ptr, ptr, ptr, ptr, ptr, ptr, ptr }
%struct.JsonLexContext = type { ptr, i64, i32, ptr, ptr, ptr, i8, i32, i32, i32, i32, ptr, ptr, ptr, i8, ptr, ptr }

; Function Attrs: inlinehint nounwind uwtable
define internal i32 @lex_expect(i32 noundef %0, ptr noundef %1, i32 noundef %2) #0 {
  %4 = alloca i32, align 4
  %5 = alloca i32, align 4
  %6 = alloca ptr, align 8
  %7 = alloca i32, align 4
  store i32 %0, ptr %5, align 4
  store ptr %1, ptr %6, align 8
  store i32 %2, ptr %7, align 4
  %8 = load ptr, ptr %6, align 8
  %9 = call i32 @lex_peek(ptr noundef %8)
  %10 = load i32, ptr %7, align 4
  %11 = icmp eq i32 %9, %10
  br i1 %11, label %12, label %15

12:                                               ; preds = %3
  %13 = load ptr, ptr %6, align 8
  %14 = call i32 @json_lex(ptr noundef %13)
  store i32 %14, ptr %4, align 4
  br label %19

15:                                               ; preds = %3
  %16 = load i32, ptr %5, align 4
  %17 = load ptr, ptr %6, align 8
  %18 = call i32 @report_parse_error(i32 noundef %16, ptr noundef %17)
  store i32 %18, ptr %4, align 4
  br label %19

19:                                               ; preds = %15, %12
  %20 = load i32, ptr %4, align 4
  ret i32 %20
}

; Function Attrs: nounwind uwtable
define internal i32 @report_parse_error(i32 noundef %0, ptr noundef %1) #1 {
  %3 = alloca i32, align 4
  %4 = alloca i32, align 4
  %5 = alloca ptr, align 8
  store i32 %0, ptr %4, align 4
  store ptr %1, ptr %5, align 8
  %6 = load ptr, ptr %5, align 8
  %7 = getelementptr inbounds nuw %struct.JsonLexContext, ptr %6, i32 0, i32 3
  %8 = load ptr, ptr %7, align 8
  %9 = icmp eq ptr %8, null
  br i1 %9, label %15, label %10

10:                                               ; preds = %2
  %11 = load ptr, ptr %5, align 8
  %12 = getelementptr inbounds nuw %struct.JsonLexContext, ptr %11, i32 0, i32 7
  %13 = load i32, ptr %12, align 4
  %14 = icmp eq i32 %13, 12
  br i1 %14, label %15, label %16

15:                                               ; preds = %10, %2
  store i32 11, ptr %3, align 4
  br label %28

16:                                               ; preds = %10
  %17 = load i32, ptr %4, align 4
  switch i32 %17, label %27 [
    i32 8, label %18
    i32 0, label %19
    i32 1, label %20
    i32 2, label %21
    i32 3, label %22
    i32 4, label %23
    i32 5, label %24
    i32 6, label %25
    i32 7, label %26
  ]

18:                                               ; preds = %16
  store i32 9, ptr %3, align 4
  br label %28

19:                                               ; preds = %16
  store i32 10, ptr %3, align 4
  br label %28

20:                                               ; preds = %16
  store i32 14, ptr %3, align 4
  br label %28

21:                                               ; preds = %16
  store i32 6, ptr %3, align 4
  br label %28

22:                                               ; preds = %16
  store i32 7, ptr %3, align 4
  br label %28

23:                                               ; preds = %16
  store i32 12, ptr %3, align 4
  br label %28

24:                                               ; preds = %16
  store i32 8, ptr %3, align 4
  br label %28

25:                                               ; preds = %16
  store i32 13, ptr %3, align 4
  br label %28

26:                                               ; preds = %16
  store i32 14, ptr %3, align 4
  br label %28

27:                                               ; preds = %16
  store i32 0, ptr %3, align 4
  br label %28

28:                                               ; preds = %27, %26, %25, %24, %23, %22, %21, %20, %19, %18, %15
  %29 = load i32, ptr %3, align 4
  ret i32 %29
}

; Function Attrs: inlinehint nounwind uwtable
define internal i32 @lex_peek(ptr noundef %0) #0 {
  %2 = alloca ptr, align 8
  store ptr %0, ptr %2, align 8
  %3 = load ptr, ptr %2, align 8
  %4 = getelementptr inbounds nuw %struct.JsonLexContext, ptr %3, i32 0, i32 7
  %5 = load i32, ptr %4, align 4
  ret i32 %5
}

; Function Attrs: nounwind uwtable
define internal i32 @parse_object(ptr noundef %0, ptr noundef %1) #1 {
  %3 = alloca i32, align 4
  %4 = alloca ptr, align 8
  %5 = alloca ptr, align 8
  %6 = alloca ptr, align 8
  %7 = alloca ptr, align 8
  %8 = alloca i32, align 4
  %9 = alloca i32, align 4
  %10 = alloca i32, align 4
  store ptr %0, ptr %4, align 8
  store ptr %1, ptr %5, align 8
  call void @llvm.lifetime.start.p0(i64 8, ptr %6) #15
  %11 = load ptr, ptr %5, align 8
  %12 = getelementptr inbounds nuw %struct.JsonSemAction, ptr %11, i32 0, i32 1
  %13 = load ptr, ptr %12, align 8
  store ptr %13, ptr %6, align 8
  call void @llvm.lifetime.start.p0(i64 8, ptr %7) #15
  %14 = load ptr, ptr %5, align 8
  %15 = getelementptr inbounds nuw %struct.JsonSemAction, ptr %14, i32 0, i32 2
  %16 = load ptr, ptr %15, align 8
  store ptr %16, ptr %7, align 8
  call void @llvm.lifetime.start.p0(i64 4, ptr %8) #15
  call void @llvm.lifetime.start.p0(i64 4, ptr %9) #15
  %17 = load ptr, ptr %6, align 8
  %18 = icmp ne ptr %17, null
  br i1 %18, label %19, label %30

19:                                               ; preds = %2
  %20 = load ptr, ptr %6, align 8
  %21 = load ptr, ptr %5, align 8
  %22 = getelementptr inbounds nuw %struct.JsonSemAction, ptr %21, i32 0, i32 0
  %23 = load ptr, ptr %22, align 8
  %24 = call i32 %20(ptr noundef %23)
  store i32 %24, ptr %9, align 4
  %25 = load i32, ptr %9, align 4
  %26 = icmp ne i32 %25, 0
  br i1 %26, label %27, label %29

27:                                               ; preds = %19
  %28 = load i32, ptr %9, align 4
  store i32 %28, ptr %3, align 4
  store i32 1, ptr %10, align 4
  br label %103

29:                                               ; preds = %19
  br label %30

30:                                               ; preds = %29, %2
  %31 = load ptr, ptr %4, align 8
  %32 = getelementptr inbounds nuw %struct.JsonLexContext, ptr %31, i32 0, i32 8
  %33 = load i32, ptr %32, align 8
  %34 = add i32 %33, 1
  store i32 %34, ptr %32, align 8
  %35 = load ptr, ptr %4, align 8
  %36 = call i32 @json_lex(ptr noundef %35)
  store i32 %36, ptr %9, align 4
  %37 = load i32, ptr %9, align 4
  %38 = icmp ne i32 %37, 0
  br i1 %38, label %39, label %41

39:                                               ; preds = %30
  %40 = load i32, ptr %9, align 4
  store i32 %40, ptr %3, align 4
  store i32 1, ptr %10, align 4
  br label %103

41:                                               ; preds = %30
  %42 = load ptr, ptr %4, align 8
  %43 = call i32 @lex_peek(ptr noundef %42)
  store i32 %43, ptr %8, align 4
  %44 = load i32, ptr %8, align 4
  switch i32 %44, label %69 [
    i32 1, label %45
    i32 4, label %72
  ]

45:                                               ; preds = %41
  %46 = load ptr, ptr %4, align 8
  %47 = load ptr, ptr %5, align 8
  %48 = call i32 @parse_object_field(ptr noundef %46, ptr noundef %47)
  store i32 %48, ptr %9, align 4
  br label %49

49:                                               ; preds = %64, %45
  %50 = load i32, ptr %9, align 4
  %51 = icmp eq i32 %50, 0
  br i1 %51, label %52, label %56

52:                                               ; preds = %49
  %53 = load ptr, ptr %4, align 8
  %54 = call i32 @lex_peek(ptr noundef %53)
  %55 = icmp eq i32 %54, 7
  br label %56

56:                                               ; preds = %52, %49
  %57 = phi i1 [ false, %49 ], [ %55, %52 ]
  br i1 %57, label %58, label %68

58:                                               ; preds = %56
  %59 = load ptr, ptr %4, align 8
  %60 = call i32 @json_lex(ptr noundef %59)
  store i32 %60, ptr %9, align 4
  %61 = load i32, ptr %9, align 4
  %62 = icmp ne i32 %61, 0
  br i1 %62, label %63, label %64

63:                                               ; preds = %58
  br label %68

64:                                               ; preds = %58
  %65 = load ptr, ptr %4, align 8
  %66 = load ptr, ptr %5, align 8
  %67 = call i32 @parse_object_field(ptr noundef %65, ptr noundef %66)
  store i32 %67, ptr %9, align 4
  br label %49, !llvm.loop !17

68:                                               ; preds = %63, %56
  br label %72

69:                                               ; preds = %41
  %70 = load ptr, ptr %4, align 8
  %71 = call i32 @report_parse_error(i32 noundef 4, ptr noundef %70)
  store i32 %71, ptr %9, align 4
  br label %72

72:                                               ; preds = %69, %41, %68
  %73 = load i32, ptr %9, align 4
  %74 = icmp ne i32 %73, 0
  br i1 %74, label %75, label %77

75:                                               ; preds = %72
  %76 = load i32, ptr %9, align 4
  store i32 %76, ptr %3, align 4
  store i32 1, ptr %10, align 4
  br label %103

77:                                               ; preds = %72
  %78 = load ptr, ptr %4, align 8
  %79 = call i32 @lex_expect(i32 noundef 6, ptr noundef %78, i32 noundef 4)
  store i32 %79, ptr %9, align 4
  %80 = load i32, ptr %9, align 4
  %81 = icmp ne i32 %80, 0
  br i1 %81, label %82, label %84

82:                                               ; preds = %77
  %83 = load i32, ptr %9, align 4
  store i32 %83, ptr %3, align 4
  store i32 1, ptr %10, align 4
  br label %103

84:                                               ; preds = %77
  %85 = load ptr, ptr %4, align 8
  %86 = getelementptr inbounds nuw %struct.JsonLexContext, ptr %85, i32 0, i32 8
  %87 = load i32, ptr %86, align 8
  %88 = add i32 %87, -1
  store i32 %88, ptr %86, align 8
  %89 = load ptr, ptr %7, align 8
  %90 = icmp ne ptr %89, null
  br i1 %90, label %91, label %102

91:                                               ; preds = %84
  %92 = load ptr, ptr %7, align 8
  %93 = load ptr, ptr %5, align 8
  %94 = getelementptr inbounds nuw %struct.JsonSemAction, ptr %93, i32 0, i32 0
  %95 = load ptr, ptr %94, align 8
  %96 = call i32 %92(ptr noundef %95)
  store i32 %96, ptr %9, align 4
  %97 = load i32, ptr %9, align 4
  %98 = icmp ne i32 %97, 0
  br i1 %98, label %99, label %101

99:                                               ; preds = %91
  %100 = load i32, ptr %9, align 4
  store i32 %100, ptr %3, align 4
  store i32 1, ptr %10, align 4
  br label %103

101:                                              ; preds = %91
  br label %102

102:                                              ; preds = %101, %84
  store i32 0, ptr %3, align 4
  store i32 1, ptr %10, align 4
  br label %103

103:                                              ; preds = %102, %99, %82, %75, %39, %27
  call void @llvm.lifetime.end.p0(i64 4, ptr %9) #15
  call void @llvm.lifetime.end.p0(i64 4, ptr %8) #15
  call void @llvm.lifetime.end.p0(i64 8, ptr %7) #15
  call void @llvm.lifetime.end.p0(i64 8, ptr %6) #15
  %104 = load i32, ptr %3, align 4
  ret i32 %104
}