; Function Attrs: nounwind uwtable
define internal fastcc i32 @parse_object(ptr noundef captures(address) %0, ptr noundef readonly captures(none) %1) unnamed_addr #1 {
  %3 = getelementptr inbounds nuw i8, ptr %1, i64 8
  %4 = load ptr, ptr %3, align 8
  %5 = getelementptr inbounds nuw i8, ptr %1, i64 16
  %6 = load ptr, ptr %5, align 8
  %.not = icmp eq ptr %4, null
  br i1 %.not, label %10, label %7

7:                                                ; preds = %2
  %8 = load ptr, ptr %1, align 8
  %9 = tail call i32 %4(ptr noundef %8) #16
  %.not42 = icmp eq i32 %9, 0
  br i1 %.not42, label %10, label %.critedge.thread

10:                                               ; preds = %7, %2
  %11 = getelementptr inbounds nuw i8, ptr %0, i64 56
  %12 = load i32, ptr %11, align 8
  %13 = add i32 %12, 1
  store i32 %13, ptr %11, align 8
  %14 = tail call i32 @json_lex(ptr noundef %0)
  %.not43 = icmp eq i32 %14, 0
  br i1 %.not43, label %15, label %.critedge.thread

15:                                               ; preds = %10
  %16 = getelementptr i8, ptr %0, i64 52
  %.val49 = load i32, ptr %16, align 4
  switch i32 %.val49, label %25 [
    i32 1, label %17
    i32 4, label %lex_expect.exit
  ]

17:                                               ; preds = %15
  %18 = tail call fastcc i32 @parse_object_field(ptr noundef nonnull %0, ptr noundef nonnull %1)
  %19 = icmp eq i32 %18, 0
  br i1 %19, label %.lr.ph, label %.critedge.thread

.lr.ph:                                           ; preds = %17, %22
  %.val = load i32, ptr %16, align 4
  switch i32 %.val, label %30 [
    i32 7, label %20
    i32 4, label %lex_expect.exit
  ]

20:                                               ; preds = %.lr.ph
  %21 = tail call i32 @json_lex(ptr noundef nonnull %0)
  %.not44 = icmp eq i32 %21, 0
  br i1 %.not44, label %22, label %.critedge.thread

22:                                               ; preds = %20
  %23 = tail call fastcc i32 @parse_object_field(ptr noundef nonnull %0, ptr noundef nonnull %1)
  %24 = icmp eq i32 %23, 0
  br i1 %24, label %.lr.ph, label %.critedge.thread, !llvm.loop !17

25:                                               ; preds = %15
  %26 = getelementptr inbounds nuw i8, ptr %0, i64 24
  %27 = load ptr, ptr %26, align 8
  %28 = icmp eq ptr %27, null
  %29 = icmp eq i32 %.val49, 12
  %or.cond = or i1 %29, %28
  %spec.select58 = select i1 %or.cond, i32 11, i32 12
  br label %.critedge.thread

30:                                               ; preds = %.lr.ph
  %31 = getelementptr inbounds nuw i8, ptr %0, i64 24
  %32 = load ptr, ptr %31, align 8
  %33 = icmp eq ptr %32, null
  %34 = icmp eq i32 %.val, 12
  %or.cond.i = or i1 %34, %33
  %spec.select = select i1 %or.cond.i, i32 11, i32 13
  br label %.critedge.thread

lex_expect.exit:                                  ; preds = %.lr.ph, %15
  %35 = tail call i32 @json_lex(ptr noundef nonnull %0)
  %.not46 = icmp eq i32 %35, 0
  br i1 %.not46, label %36, label %.critedge.thread

36:                                               ; preds = %lex_expect.exit
  %37 = load i32, ptr %11, align 8
  %38 = add i32 %37, -1
  store i32 %38, ptr %11, align 8
  %.not47 = icmp eq ptr %6, null
  br i1 %.not47, label %42, label %39

39:                                               ; preds = %36
  %40 = load ptr, ptr %1, align 8
  %41 = tail call i32 %6(ptr noundef %40) #16
  %.not48 = icmp eq i32 %41, 0
  br i1 %.not48, label %42, label %.critedge.thread

42:                                               ; preds = %39, %36
  br label %.critedge.thread

.critedge.thread:                                 ; preds = %20, %22, %17, %25, %30, %39, %lex_expect.exit, %10, %7, %42
  %.033 = phi i32 [ 0, %42 ], [ %9, %7 ], [ %14, %10 ], [ %35, %lex_expect.exit ], [ %41, %39 ], [ %spec.select, %30 ], [ %spec.select58, %25 ], [ %18, %17 ], [ %21, %20 ], [ %23, %22 ]
  ret i32 %.033
}